target datalayout = "e-m:e-p270:32:32-p271:32:32-p272:64:64-i64:64-i128:128-f80:128-n8:16:32:64-S128"
target triple = "x86_64-unknown-linux-gnu"

%struct.VmdkExtent = type { ptr, i8, i8, i8, i8, i8, i64, i64, i32, i32, i64, i64, i64, i64, i64, ptr, ptr, i32, i32, i32, ptr, [16 x i32], [16 x i32], i64, i64, ptr }
%struct.BdrvChild = type { ptr, ptr, ptr, i32, ptr, i64, i64, i8, i8, %struct.anon.11, %struct.anon.12 }
%struct.anon.11 = type { ptr, ptr }
%struct.anon.12 = type { ptr, ptr }
%struct.QEMUIOVector = type { ptr, i32, %union.anon.18 }
%union.anon.18 = type { %struct.anon.19 }
%struct.anon.19 = type { i32, %struct.iovec }
%struct.iovec = type { ptr, i64 }
%struct.VmdkMetaData = type { i32, i32, i32, i8, ptr }

; Function Attrs: nounwind sspstrong uwtable
define internal i32 @bdrv_co_pwrite(ptr noundef %child, i64 noundef %offset, i64 noundef %bytes, ptr noundef %buf, i32 noundef %flags) #0 {
entry:
  %child.addr = alloca ptr, align 8
  %offset.addr = alloca i64, align 8
  %bytes.addr = alloca i64, align 8
  %buf.addr = alloca ptr, align 8
  %flags.addr = alloca i32, align 4
  %qiov = alloca %struct.QEMUIOVector, align 8
  store ptr %child, ptr %child.addr, align 8
  store i64 %offset, ptr %offset.addr, align 8
  store i64 %bytes, ptr %bytes.addr, align 8
  store ptr %buf, ptr %buf.addr, align 8
  store i32 %flags, ptr %flags.addr, align 4
  %iov = getelementptr inbounds %struct.QEMUIOVector, ptr %qiov, i32 0, i32 0
  %0 = getelementptr inbounds %struct.QEMUIOVector, ptr %qiov, i32 0, i32 2
  %local_iov = getelementptr inbounds %struct.anon.19, ptr %0, i32 0, i32 1
  store ptr %local_iov, ptr %iov, align 8
  %niov = getelementptr inbounds %struct.QEMUIOVector, ptr %qiov, i32 0, i32 1
  store i32 1, ptr %niov, align 8
  %1 = getelementptr inbounds %struct.QEMUIOVector, ptr %qiov, i32 0, i32 2
  %nalloc = getelementptr inbounds %struct.anon.19, ptr %1, i32 0, i32 0
  store i32 -1, ptr %nalloc, align 8
  %local_iov1 = getelementptr inbounds %struct.anon.19, ptr %1, i32 0, i32 1
  %iov_base = getelementptr inbounds %struct.iovec, ptr %local_iov1, i32 0, i32 0
  %2 = load ptr, ptr %buf.addr, align 8
  store ptr %2, ptr %iov_base, align 8
  %iov_len = getelementptr inbounds %struct.iovec, ptr %local_iov1, i32 0, i32 1
  %3 = load i64, ptr %bytes.addr, align 8
  store i64 %3, ptr %iov_len, align 8
  br label %do.body

do.body:                                          ; preds = %entry
  br label %do.end

do.end:                                           ; preds = %do.body
  call void @assert_bdrv_graph_readable()
  %4 = load ptr, ptr %child.addr, align 8
  %5 = load i64, ptr %offset.addr, align 8
  %6 = load i64, ptr %bytes.addr, align 8
  %7 = load i32, ptr %flags.addr, align 4
  %call = call i32 @bdrv_co_pwritev(ptr noundef %4, i64 noundef %5, i64 noundef %6, ptr noundef %qiov, i32 noundef %7)
  ret i32 %call
}

; Function Attrs: nounwind sspstrong uwtable
define internal i32 @cpu_to_le32(i32 noundef %v) #0 {
entry:
  %v.addr = alloca i32, align 4
  store i32 %v, ptr %v.addr, align 4
  %0 = load i32, ptr %v.addr, align 4
  ret i32 %0
}

; Function Attrs: nounwind sspstrong uwtable
define internal i32 @vmdk_L2update(ptr noundef %extent, ptr noundef %m_data, i32 noundef %offset) #0 {
entry:
  %retval = alloca i32, align 4
  %extent.addr = alloca ptr, align 8
  %m_data.addr = alloca ptr, align 8
  %offset.addr = alloca i32, align 4
  store ptr %extent, ptr %extent.addr, align 8
  store ptr %m_data, ptr %m_data.addr, align 8
  store i32 %offset, ptr %offset.addr, align 4
  %0 = load i32, ptr %offset.addr, align 4
  %call = call i32 @cpu_to_le32(i32 noundef %0)
  store i32 %call, ptr %offset.addr, align 4
  br label %do.body

do.body:                                          ; preds = %entry
  %1 = load ptr, ptr %extent.addr, align 8
  %file = getelementptr inbounds %struct.VmdkExtent, ptr %1, i32 0, i32 0
  %2 = load ptr, ptr %file, align 8
  %tobool = icmp ne ptr %2, null
  br i1 %tobool, label %if.then, label %if.end

if.then:                                          ; preds = %do.body
  %3 = load ptr, ptr %extent.addr, align 8
  %file1 = getelementptr inbounds %struct.VmdkExtent, ptr %3, i32 0, i32 0
  %4 = load ptr, ptr %file1, align 8
  %bs = getelementptr inbounds %struct.BdrvChild, ptr %4, i32 0, i32 0
  %5 = load ptr, ptr %bs, align 8
  call void @bdrv_co_debug_event(ptr noundef %5, i32 noundef 5)
  br label %if.end

if.end:                                           ; preds = %if.then, %do.body
  br label %do.end

do.end:                                           ; preds = %if.end
  %6 = load ptr, ptr %extent.addr, align 8
  %file2 = getelementptr inbounds %struct.VmdkExtent, ptr %6, i32 0, i32 0
  %7 = load ptr, ptr %file2, align 8
  %8 = load ptr, ptr %m_data.addr, align 8
  %l2_offset = getelementptr inbounds %struct.VmdkMetaData, ptr %8, i32 0, i32 2
  %9 = load i32, ptr %l2_offset, align 8
  %conv = zext i32 %9 to i64
  %mul = mul i64 %conv, 512
  %10 = load ptr, ptr %m_data.addr, align 8
  %l2_index = getelementptr inbounds %struct.VmdkMetaData, ptr %10, i32 0, i32 1
  %11 = load i32, ptr %l2_index, align 4
  %conv3 = zext i32 %11 to i64
  %mul4 = mul i64 %conv3, 4
  %add = add i64 %mul, %mul4
  %call5 = call i32 @bdrv_co_pwrite(ptr noundef %7, i64 noundef %add, i64 noundef 4, ptr noundef %offset.addr, i32 noundef 0)
  %cmp = icmp slt i32 %call5, 0
  br i1 %cmp, label %if.then7, label %if.end8

if.then7:                                         ; preds = %do.end
  store i32 -1, ptr %retval, align 4
  br label %return

if.end8:                                          ; preds = %do.end
  %12 = load ptr, ptr %extent.addr, align 8
  %l1_backup_table_offset = getelementptr inbounds %struct.VmdkExtent, ptr %12, i32 0, i32 14
  %13 = load i64, ptr %l1_backup_table_offset, align 8
  %cmp9 = icmp ne i64 %13, 0
  br i1 %cmp9, label %if.then11, label %if.end26

if.then11:                                        ; preds = %if.end8
  %14 = load ptr, ptr %extent.addr, align 8
  %l1_backup_table = getelementptr inbounds %struct.VmdkExtent, ptr %14, i32 0, i32 16
  %15 = load ptr, ptr %l1_backup_table, align 8
  %16 = load ptr, ptr %m_data.addr, align 8
  %l1_index = getelementptr inbounds %struct.VmdkMetaData, ptr %16, i32 0, i32 0
  %17 = load i32, ptr %l1_index, align 8
  %idxprom = zext i32 %17 to i64
  %arrayidx = getelementptr i32, ptr %15, i64 %idxprom
  %18 = load i32, ptr %arrayidx, align 4
  %19 = load ptr, ptr %m_data.addr, align 8
  %l2_offset12 = getelementptr inbounds %struct.VmdkMetaData, ptr %19, i32 0, i32 2
  store i32 %18, ptr %l2_offset12, align 8
  %20 = load ptr, ptr %extent.addr, align 8
  %file13 = getelementptr inbounds %struct.VmdkExtent, ptr %20, i32 0, i32 0
  %21 = load ptr, ptr %file13, align 8
  %22 = load ptr, ptr %m_data.addr, align 8
  %l2_offset14 = getelementptr inbounds %struct.VmdkMetaData, ptr %22, i32 0, i32 2
  %23 = load i32, ptr %l2_offset14, align 8
  %conv15 = zext i32 %23 to i64
  %mul16 = mul i64 %conv15, 512
  %24 = load ptr, ptr %m_data.addr, align 8
  %l2_index17 = getelementptr inbounds %struct.VmdkMetaData, ptr %24, i32 0, i32 1
  %25 = load i32, ptr %l2_index17, align 4
  %conv18 = zext i32 %25 to i64
  %mul19 = mul i64 %conv18, 4
  %add20 = add i64 %mul16, %mul19
  %call21 = call i32 @bdrv_co_pwrite(ptr noundef %21, i64 noundef %add20, i64 noundef 4, ptr noundef %offset.addr, i32 noundef 0)
  %cmp22 = icmp slt i32 %call21, 0
  br i1 %cmp22, label %if.then24, label %if.end25

if.then24:                                        ; preds = %if.then11
  store i32 -1, ptr %retval, align 4
  br label %return

if.end25:                                         ; preds = %if.then11
  br label %if.end26

if.end26:                                         ; preds = %if.end25, %if.end8
  %26 = load ptr, ptr %extent.addr, align 8
  %file27 = getelementptr inbounds %struct.VmdkExtent, ptr %26, i32 0, i32 0
  %27 = load ptr, ptr %file27, align 8
  %bs28 = getelementptr inbounds %struct.BdrvChild, ptr %27, i32 0, i32 0
  %28 = load ptr, ptr %bs28, align 8
  %call29 = call i32 @bdrv_co_flush(ptr noundef %28)
  %cmp30 = icmp slt i32 %call29, 0
  br i1 %cmp30, label %if.then32, label %if.end33

if.then32:                                        ; preds = %if.end26
  store i32 -1, ptr %retval, align 4
  br label %return

if.end33:                                         ; preds = %if.end26
  %29 = load ptr, ptr %m_data.addr, align 8
  %l2_cache_entry = getelementptr inbounds %struct.VmdkMetaData, ptr %29, i32 0, i32 4
  %30 = load ptr, ptr %l2_cache_entry, align 8
  %tobool34 = icmp ne ptr %30, null
  br i1 %tobool34, label %if.then35, label %if.end37

if.then35:                                        ; preds = %if.end33
  %31 = load i32, ptr %offset.addr, align 4
  %32 = load ptr, ptr %m_data.addr, align 8
  %l2_cache_entry36 = getelementptr inbounds %struct.VmdkMetaData, ptr %32, i32 0, i32 4
  %33 = load ptr, ptr %l2_cache_entry36, align 8
  store i32 %31, ptr %33, align 4
  br label %if.end37

if.end37:                                         ; preds = %if.then35, %if.end33
  store i32 0, ptr %retval, align 4
  br label %return

return:                                           ; preds = %if.end37, %if.then32, %if.then24, %if.then7
  %34 = load i32, ptr %retval, align 4
  ret i32 %34
}