; Function Attrs: nounwind sspstrong uwtable
define internal range(i32 -1, 1) i32 @vmdk_L2update(ptr noundef readonly captures(none) %extent, ptr noundef captures(none) %m_data, i32 noundef %offset) #0 {
entry:
  %qiov.i15 = alloca %struct.QEMUIOVector, align 8
  %qiov.i = alloca %struct.QEMUIOVector, align 8
  %offset.addr = alloca i32, align 4
  store i32 %offset, ptr %offset.addr, align 4
  %0 = load ptr, ptr %extent, align 8
  %tobool.not = icmp eq ptr %0, null
  br i1 %tobool.not, label %do.end, label %if.then

if.then:                                          ; preds = %entry
  %1 = load ptr, ptr %0, align 8
  tail call void @bdrv_co_debug_event(ptr noundef %1, i32 noundef 5) #15
  %.pre = load ptr, ptr %extent, align 8
  br label %do.end

do.end:                                           ; preds = %entry, %if.then
  %2 = phi ptr [ null, %entry ], [ %.pre, %if.then ]
  %l2_offset = getelementptr inbounds nuw i8, ptr %m_data, i64 8
  %3 = load i32, ptr %l2_offset, align 8
  %conv = zext i32 %3 to i64
  %mul = shl nuw nsw i64 %conv, 9
  %l2_index = getelementptr inbounds nuw i8, ptr %m_data, i64 4
  %4 = load i32, ptr %l2_index, align 4
  %conv3 = zext i32 %4 to i64
  %mul4 = shl nuw nsw i64 %conv3, 2
  %add = add nuw nsw i64 %mul4, %mul
  call void @llvm.lifetime.start.p0(i64 40, ptr nonnull %qiov.i)
  %5 = getelementptr inbounds nuw i8, ptr %qiov.i, i64 16
  %local_iov.i = getelementptr inbounds nuw i8, ptr %qiov.i, i64 24
  store ptr %local_iov.i, ptr %qiov.i, align 8
  %niov.i = getelementptr inbounds nuw i8, ptr %qiov.i, i64 8
  store i32 1, ptr %niov.i, align 8
  store i32 -1, ptr %5, align 8
  store ptr %offset.addr, ptr %local_iov.i, align 8
  %iov_len.i = getelementptr inbounds nuw i8, ptr %qiov.i, i64 32
  store i64 4, ptr %iov_len.i, align 8
  call void @assert_bdrv_graph_readable() #15
  %call.i = call i32 @bdrv_co_pwritev(ptr noundef %2, i64 noundef %add, i64 noundef 4, ptr noundef nonnull %qiov.i, i32 noundef 0) #15
  call void @llvm.lifetime.end.p0(i64 40, ptr nonnull %qiov.i)
  %cmp = icmp slt i32 %call.i, 0
  br i1 %cmp, label %return, label %if.end8

if.end8:                                          ; preds = %do.end
  %l1_backup_table_offset = getelementptr inbounds nuw i8, ptr %extent, i64 72
  %6 = load i64, ptr %l1_backup_table_offset, align 8
  %cmp9.not = icmp eq i64 %6, 0
  br i1 %cmp9.not, label %if.end26, label %if.then11

if.then11:                                        ; preds = %if.end8
  %l1_backup_table = getelementptr inbounds nuw i8, ptr %extent, i64 88
  %7 = load ptr, ptr %l1_backup_table, align 8
  %8 = load i32, ptr %m_data, align 8
  %idxprom = zext i32 %8 to i64
  %arrayidx = getelementptr i32, ptr %7, i64 %idxprom
  %9 = load i32, ptr %arrayidx, align 4
  store i32 %9, ptr %l2_offset, align 8
  %10 = load ptr, ptr %extent, align 8
  %conv15 = zext i32 %9 to i64
  %mul16 = shl nuw nsw i64 %conv15, 9
  %11 = load i32, ptr %l2_index, align 4
  %conv18 = zext i32 %11 to i64
  %mul19 = shl nuw nsw i64 %conv18, 2
  %add20 = add nuw nsw i64 %mul19, %mul16
  call void @llvm.lifetime.start.p0(i64 40, ptr nonnull %qiov.i15)
  %12 = getelementptr inbounds nuw i8, ptr %qiov.i15, i64 16
  %local_iov.i16 = getelementptr inbounds nuw i8, ptr %qiov.i15, i64 24
  store ptr %local_iov.i16, ptr %qiov.i15, align 8
  %niov.i17 = getelementptr inbounds nuw i8, ptr %qiov.i15, i64 8
  store i32 1, ptr %niov.i17, align 8
  store i32 -1, ptr %12, align 8
  store ptr %offset.addr, ptr %local_iov.i16, align 8
  %iov_len.i18 = getelementptr inbounds nuw i8, ptr %qiov.i15, i64 32
  store i64 4, ptr %iov_len.i18, align 8
  call void @assert_bdrv_graph_readable() #15
  %call.i19 = call i32 @bdrv_co_pwritev(ptr noundef %10, i64 noundef %add20, i64 noundef 4, ptr noundef nonnull %qiov.i15, i32 noundef 0) #15
  call void @llvm.lifetime.end.p0(i64 40, ptr nonnull %qiov.i15)
  %cmp22 = icmp slt i32 %call.i19, 0
  br i1 %cmp22, label %return, label %if.end26

if.end26:                                         ; preds = %if.then11, %if.end8
  %13 = load ptr, ptr %extent, align 8
  %14 = load ptr, ptr %13, align 8
  %call29 = call i32 @bdrv_co_flush(ptr noundef %14) #15
  %cmp30 = icmp slt i32 %call29, 0
  br i1 %cmp30, label %return, label %if.end33

if.end33:                                         ; preds = %if.end26
  %l2_cache_entry = getelementptr inbounds nuw i8, ptr %m_data, i64 16
  %15 = load ptr, ptr %l2_cache_entry, align 8
  %tobool34.not = icmp eq ptr %15, null
  br i1 %tobool34.not, label %return, label %if.then35

if.then35:                                        ; preds = %if.end33
  %16 = load i32, ptr %offset.addr, align 4
  store i32 %16, ptr %15, align 4
  br label %return

return:                                           ; preds = %if.end33, %if.then35, %if.end26, %if.then11, %do.end
  %retval.0 = phi i32 [ -1, %do.end ], [ -1, %if.then11 ], [ -1, %if.end26 ], [ 0, %if.then35 ], [ 0, %if.end33 ]
  ret i32 %retval.0
}